target datalayout = "e-m:e-p270:32:32-p271:32:32-p272:64:64-i64:64-i128:128-f80:128-n8:16:32:64-S128"
target triple = "x86_64-pc-linux-gnu"

%struct._zend_phpdbg_globals = type { [11 x %struct._zend_array], %struct._zend_array, %struct._zend_array, ptr, ptr, %struct.phpdbg_frame_t, i32, ptr, %struct.phpdbg_lexer_data, ptr, %struct.sigaction, i32, i64, %struct.phpdbg_btree, %struct.phpdbg_btree, %struct._zend_array, %struct._zend_array, %struct._zend_array, %struct._zend_array, ptr, ptr, i8, ptr, ptr, ptr, i64, ptr, %struct._zval_struct, i32, i32, i8, i8, ptr, ptr, ptr, %struct._zend_array, ptr, ptr, ptr, [3 x %struct.anon.8], ptr, %struct.anon.9, i64, [2 x ptr], [3 x ptr], ptr, i8, ptr, ptr, [500 x i8], i32, %struct.phpdbg_signal_safe_mem, ptr, i64, ptr, i64 }
%struct.phpdbg_frame_t = type { i32, ptr, ptr }
%struct.phpdbg_lexer_data = type { i32, ptr, ptr, ptr, ptr, i32 }
%struct.sigaction = type { %union.anon.2, %struct.__sigset_t, i32, ptr }
%union.anon.2 = type { ptr }
%struct.__sigset_t = type { [16 x i64] }
%struct.phpdbg_btree = type { i64, i64, i8, ptr }
%struct._zval_struct = type { %union._zend_value, %union.anon.4, %union.anon.7 }
%union._zend_value = type { i64 }
%union.anon.4 = type { i32 }
%union.anon.7 = type { i32 }
%struct._zend_array = type { %struct._zend_refcounted_h, %union.anon.0, i32, %union.anon.1, i32, i32, i32, i32, i64, ptr }
%struct._zend_refcounted_h = type { i32, %union.anon }
%union.anon = type { i32 }
%union.anon.0 = type { i32 }
%union.anon.1 = type { ptr }
%struct.anon.8 = type { i32 }
%struct.anon.9 = type { i8, i32, i32, ptr, i32 }
%struct.phpdbg_signal_safe_mem = type { ptr, i8, ptr, ptr }
%struct._sapi_globals_struct = type { ptr, %struct.sapi_request_info, %struct.sapi_headers_struct, i64, i8, i8, %struct.stat, ptr, ptr, ptr, i64, i32, i8, double, %struct._zend_array, %struct._zval_struct, %struct._zend_fcall_info_cache, %struct.sapi_request_parse_body_context }
%struct.sapi_request_info = type { ptr, ptr, ptr, i64, ptr, ptr, ptr, ptr, i8, i8, i8, ptr, ptr, ptr, ptr, ptr, ptr, ptr, i32, i32, ptr, i32 }
%struct.sapi_headers_struct = type { %struct._zend_llist, i32, i8, ptr, ptr }
%struct._zend_llist = type { ptr, ptr, i64, i64, ptr, i8, ptr }
%struct.stat = type { i64, i64, i64, i32, i32, i32, i32, i64, i64, i64, i64, %struct.timespec, %struct.timespec, %struct.timespec, [3 x i64] }
%struct.timespec = type { i64, i64 }
%struct._zend_fcall_info_cache = type { ptr, ptr, ptr, ptr, ptr }
%struct.sapi_request_parse_body_context = type { i8, [5 x %struct.anon.12] }
%struct.anon.12 = type { i8, i64 }
%struct._php_core_globals = type { i64, i8, i8, i8, i8, i8, i8, i8, i8, ptr, ptr, i64, i64, i64, ptr, ptr, ptr, ptr, ptr, i8, ptr, ptr, ptr, ptr, i64, ptr, ptr, ptr, ptr, ptr, ptr, ptr, %struct._arg_separators, ptr, %struct._zend_array, i16, i8, i8, %struct._zend_llist, [6 x %struct._zval_struct], i8, i8, i8, i8, i8, ptr, ptr, i64, [8 x i8], i8, i8, i8, i8, i8, i8, i32, i32, ptr, ptr, ptr, ptr, i64, i64, ptr, i64, ptr, ptr, i8, i8, i8, i8, i8, i8, i64, ptr, i64, i64 }
%struct._arg_separators = type { ptr, ptr }
%struct._phpdbg_param = type { i32, i64, i64, %struct.anon.10, %struct.anon.11, ptr, i64, ptr, ptr }
%struct.anon.10 = type { ptr, i64 }
%struct.anon.11 = type { ptr, ptr }

@phpdbg_globals = external global %struct._zend_phpdbg_globals, align 8
@.str.70 = private unnamed_addr constant [69 x i8] c"Do you really want to stop execution to set a new execution context?\00", align 1
@.str.71 = private unnamed_addr constant [36 x i8] c"Unsetting old execution context: %s\00", align 1
@.str.72 = private unnamed_addr constant [28 x i8] c"Destroying compiled opcodes\00", align 1
@sapi_globals = external global %struct._sapi_globals_struct, align 8
@core_globals = external global %struct._php_core_globals, align 8
@.str.73 = private unnamed_addr constant [26 x i8] c"Set execution context: %s\00", align 1
@.str.74 = private unnamed_addr constant [30 x i8] c"Execution context not changed\00", align 1
@.str.75 = private unnamed_addr constant [64 x i8] c"Cannot use %s as execution context, not a valid file or symlink\00", align 1
@.str.76 = private unnamed_addr constant [39 x i8] c"Cannot stat %s, ensure the file exists\00", align 1

; Function Attrs: nounwind uwtable
define hidden void @phpdbg_clean(i1 noundef zeroext %0, i1 noundef zeroext %1) #0 {
  %3 = alloca i8, align 1
  %4 = alloca i8, align 1
  %5 = zext i1 %0 to i8
  store i8 %5, ptr %3, align 1
  %6 = zext i1 %1 to i8
  store i8 %6, ptr %4, align 1
  %7 = load ptr, ptr getelementptr inbounds (%struct._zend_phpdbg_globals, ptr @phpdbg_globals, i32 0, i32 26), align 8
  %8 = icmp ne ptr %7, null
  br i1 %8, label %9, label %12

9:                                                ; preds = %2
  %10 = load ptr, ptr getelementptr inbounds (%struct._zend_phpdbg_globals, ptr @phpdbg_globals, i32 0, i32 26), align 8
  call void @destroy_op_array(ptr noundef %10)
  %11 = load ptr, ptr getelementptr inbounds (%struct._zend_phpdbg_globals, ptr @phpdbg_globals, i32 0, i32 26), align 8
  call void @_efree(ptr noundef %11)
  store ptr null, ptr getelementptr inbounds (%struct._zend_phpdbg_globals, ptr @phpdbg_globals, i32 0, i32 26), align 8
  br label %12

12:                                               ; preds = %9, %2
  %13 = load i8, ptr %4, align 1
  %14 = trunc i8 %13 to i1
  br i1 %14, label %20, label %15

15:                                               ; preds = %12
  %16 = load ptr, ptr getelementptr inbounds (%struct._zend_phpdbg_globals, ptr @phpdbg_globals, i32 0, i32 7), align 8
  %17 = icmp ne ptr %16, null
  br i1 %17, label %18, label %20

18:                                               ; preds = %15
  %19 = load ptr, ptr getelementptr inbounds (%struct._zend_phpdbg_globals, ptr @phpdbg_globals, i32 0, i32 7), align 8
  call void @free(ptr noundef %19) #15
  store ptr null, ptr getelementptr inbounds (%struct._zend_phpdbg_globals, ptr @phpdbg_globals, i32 0, i32 7), align 8
  br label %20

20:                                               ; preds = %18, %15, %12
  %21 = load i8, ptr %3, align 1
  %22 = trunc i8 %21 to i1
  br i1 %22, label %23, label %26

23:                                               ; preds = %20
  %24 = load i64, ptr getelementptr inbounds (%struct._zend_phpdbg_globals, ptr @phpdbg_globals, i32 0, i32 53), align 8
  %25 = or i64 %24, 262144
  store i64 %25, ptr getelementptr inbounds (%struct._zend_phpdbg_globals, ptr @phpdbg_globals, i32 0, i32 53), align 8
  br label %26

26:                                               ; preds = %23, %20
  ret void
}

; Function Attrs: nounwind uwtable
define hidden i32 @phpdbg_do_exec(ptr noundef %0) #0 {
  %2 = alloca i32, align 4
  %3 = alloca ptr, align 8
  %4 = alloca %struct.stat, align 8
  %5 = alloca ptr, align 8
  %6 = alloca i64, align 8
  store ptr %0, ptr %3, align 8
  call void @llvm.memset.p0.i64(ptr align 8 %4, i8 0, i64 144, i1 false)
  %7 = load ptr, ptr %3, align 8
  %8 = getelementptr inbounds %struct._phpdbg_param, ptr %7, i32 0, i32 5
  %9 = load ptr, ptr %8, align 8
  %10 = call i32 @stat(ptr noundef %9, ptr noundef %4) #15
  %11 = icmp ne i32 %10, -1
  br i1 %11, label %12, label %85

12:                                               ; preds = %1
  %13 = getelementptr inbounds %struct.stat, ptr %4, i32 0, i32 3
  %14 = load i32, ptr %13, align 8
  %15 = and i32 %14, 40960
  %16 = icmp ne i32 %15, 0
  br i1 %16, label %17, label %78

17:                                               ; preds = %12
  %18 = load ptr, ptr %3, align 8
  %19 = getelementptr inbounds %struct._phpdbg_param, ptr %18, i32 0, i32 5
  %20 = load ptr, ptr %19, align 8
  %21 = call ptr @phpdbg_resolve_path(ptr noundef %20)
  store ptr %21, ptr %5, align 8
  %22 = load ptr, ptr %5, align 8
  %23 = call i64 @strlen(ptr noundef %22) #16
  store i64 %23, ptr %6, align 8
  %24 = load i64, ptr %6, align 8
  %25 = load i64, ptr getelementptr inbounds (%struct._zend_phpdbg_globals, ptr @phpdbg_globals, i32 0, i32 25), align 8
  %26 = icmp ne i64 %24, %25
  br i1 %26, label %33, label %27

27:                                               ; preds = %17
  %28 = load ptr, ptr %5, align 8
  %29 = load ptr, ptr getelementptr inbounds (%struct._zend_phpdbg_globals, ptr @phpdbg_globals, i32 0, i32 24), align 8
  %30 = load i64, ptr %6, align 8
  %31 = call i32 @memcmp(ptr noundef %28, ptr noundef %29, i64 noundef %30) #16
  %32 = icmp ne i32 %31, 0
  br i1 %32, label %33, label %73

33:                                               ; preds = %27, %17
  %34 = load i8, ptr getelementptr inbounds (%struct._zend_phpdbg_globals, ptr @phpdbg_globals, i32 0, i32 30), align 8
  %35 = trunc i8 %34 to i1
  br i1 %35, label %36, label %42

36:                                               ; preds = %33
  %37 = call i32 @phpdbg_ask_user_permission(ptr noundef @.str.70)
  %38 = icmp eq i32 %37, -1
  br i1 %38, label %39, label %41

39:                                               ; preds = %36
  %40 = load ptr, ptr %5, align 8
  call void @free(ptr noundef %40) #15
  store i32 -1, ptr %2, align 4
  br label %92

41:                                               ; preds = %36
  br label %42

42:                                               ; preds = %41, %33
  %43 = load ptr, ptr getelementptr inbounds (%struct._zend_phpdbg_globals, ptr @phpdbg_globals, i32 0, i32 24), align 8
  %44 = icmp ne ptr %43, null
  br i1 %44, label %45, label %50

45:                                               ; preds = %42
  %46 = load i32, ptr getelementptr inbounds (%struct._zend_phpdbg_globals, ptr @phpdbg_globals, i32 0, i32 39, i64 1), align 4
  %47 = load ptr, ptr getelementptr inbounds (%struct._zend_phpdbg_globals, ptr @phpdbg_globals, i32 0, i32 24), align 8
  %48 = call i32 (i32, i32, ptr, ...) @phpdbg_print(i32 noundef 2, i32 noundef %46, ptr noundef @.str.71, ptr noundef %47)
  %49 = load ptr, ptr getelementptr inbounds (%struct._zend_phpdbg_globals, ptr @phpdbg_globals, i32 0, i32 24), align 8
  call void @free(ptr noundef %49) #15
  store ptr null, ptr getelementptr inbounds (%struct._zend_phpdbg_globals, ptr @phpdbg_globals, i32 0, i32 24), align 8
  store i64 0, ptr getelementptr inbounds (%struct._zend_phpdbg_globals, ptr @phpdbg_globals, i32 0, i32 25), align 8
  br label %50

50:                                               ; preds = %45, %42
  %51 = load ptr, ptr getelementptr inbounds (%struct._zend_phpdbg_globals, ptr @phpdbg_globals, i32 0, i32 26), align 8
  %52 = icmp ne ptr %51, null
  br i1 %52, label %53, label %56

53:                                               ; preds = %50
  %54 = load i32, ptr getelementptr inbounds (%struct._zend_phpdbg_globals, ptr @phpdbg_globals, i32 0, i32 39, i64 1), align 4
  %55 = call i32 (i32, i32, ptr, ...) @phpdbg_print(i32 noundef 2, i32 noundef %54, ptr noundef @.str.72)
  call void @phpdbg_clean(i1 noundef zeroext false, i1 noundef zeroext false)
  br label %56

56:                                               ; preds = %53, %50
  %57 = load ptr, ptr %5, align 8
  store ptr %57, ptr getelementptr inbounds (%struct._zend_phpdbg_globals, ptr @phpdbg_globals, i32 0, i32 24), align 8
  %58 = load i64, ptr %6, align 8
  store i64 %58, ptr getelementptr inbounds (%struct._zend_phpdbg_globals, ptr @phpdbg_globals, i32 0, i32 25), align 8
  %59 = load ptr, ptr %5, align 8
  %60 = call i32 @virtual_chdir_file(ptr noundef %59, ptr noundef @chdir)
  %61 = load ptr, ptr getelementptr inbounds (%struct._zend_phpdbg_globals, ptr @phpdbg_globals, i32 0, i32 24), align 8
  %62 = load i64, ptr getelementptr inbounds (%struct._zend_phpdbg_globals, ptr @phpdbg_globals, i32 0, i32 25), align 8
  %63 = call noalias ptr @_estrndup(ptr noundef %61, i64 noundef %62)
  %64 = load ptr, ptr getelementptr inbounds (%struct._sapi_globals_struct, ptr @sapi_globals, i32 0, i32 1, i32 20), align 8
  store ptr %63, ptr %64, align 8
  call void @php_build_argv(ptr noundef null, ptr noundef getelementptr inbounds (%struct._php_core_globals, ptr @core_globals, i32 0, i32 39, i64 3))
  %65 = load i32, ptr getelementptr inbounds (%struct._zend_phpdbg_globals, ptr @phpdbg_globals, i32 0, i32 39, i64 1), align 4
  %66 = load ptr, ptr getelementptr inbounds (%struct._zend_phpdbg_globals, ptr @phpdbg_globals, i32 0, i32 24), align 8
  %67 = call i32 (i32, i32, ptr, ...) @phpdbg_print(i32 noundef 2, i32 noundef %65, ptr noundef @.str.73, ptr noundef %66)
  %68 = load i8, ptr getelementptr inbounds (%struct._zend_phpdbg_globals, ptr @phpdbg_globals, i32 0, i32 30), align 8
  %69 = trunc i8 %68 to i1
  br i1 %69, label %70, label %71

70:                                               ; preds = %56
  call void @phpdbg_clean(i1 noundef zeroext true, i1 noundef zeroext false)
  store i32 0, ptr %2, align 4
  br label %92

71:                                               ; preds = %56
  %72 = call i32 @phpdbg_compile()
  br label %77

73:                                               ; preds = %27
  %74 = load ptr, ptr %5, align 8
  call void @free(ptr noundef %74) #15
  %75 = load i32, ptr getelementptr inbounds (%struct._zend_phpdbg_globals, ptr @phpdbg_globals, i32 0, i32 39, i64 1), align 4
  %76 = call i32 (i32, i32, ptr, ...) @phpdbg_print(i32 noundef 2, i32 noundef %75, ptr noundef @.str.74)
  br label %77

77:                                               ; preds = %73, %71
  br label %84

78:                                               ; preds = %12
  %79 = load i32, ptr getelementptr inbounds (%struct._zend_phpdbg_globals, ptr @phpdbg_globals, i32 0, i32 39, i64 1), align 4
  %80 = load ptr, ptr %3, align 8
  %81 = getelementptr inbounds %struct._phpdbg_param, ptr %80, i32 0, i32 5
  %82 = load ptr, ptr %81, align 8
  %83 = call i32 (i32, i32, ptr, ...) @phpdbg_print(i32 noundef 1, i32 noundef %79, ptr noundef @.str.75, ptr noundef %82)
  br label %84

84:                                               ; preds = %78, %77
  br label %91

85:                                               ; preds = %1
  %86 = load i32, ptr getelementptr inbounds (%struct._zend_phpdbg_globals, ptr @phpdbg_globals, i32 0, i32 39, i64 1), align 4
  %87 = load ptr, ptr %3, align 8
  %88 = getelementptr inbounds %struct._phpdbg_param, ptr %87, i32 0, i32 5
  %89 = load ptr, ptr %88, align 8
  %90 = call i32 (i32, i32, ptr, ...) @phpdbg_print(i32 noundef 1, i32 noundef %86, ptr noundef @.str.76, ptr noundef %89)
  br label %91

91:                                               ; preds = %85, %84
  store i32 0, ptr %2, align 4
  br label %92

92:                                               ; preds = %91, %70, %39
  %93 = load i32, ptr %2, align 4
  ret i32 %93
}