; Function Attrs: nounwind uwtable
define hidden noundef i32 @phpdbg_do_exec(ptr nocapture noundef readonly %0) #0 {
  %2 = alloca %struct.stat, align 8
  call void @llvm.memset.p0.i64(ptr noundef nonnull align 8 dereferenceable(144) %2, i8 0, i64 144, i1 false)
  %3 = getelementptr inbounds i8, ptr %0, i64 56
  %4 = load ptr, ptr %3, align 8
  %5 = call i32 @stat(ptr noundef %4, ptr noundef nonnull %2) #24
  %.not = icmp eq i32 %5, -1
  br i1 %.not, label %71, label %6

6:                                                ; preds = %1
  %7 = getelementptr inbounds i8, ptr %2, i64 24
  %8 = load i32, ptr %7, align 8
  %9 = and i32 %8, 40960
  %.not15 = icmp eq i32 %9, 0
  br i1 %.not15, label %67, label %10

10:                                               ; preds = %6
  %11 = load ptr, ptr %3, align 8
  %12 = tail call ptr @phpdbg_resolve_path(ptr noundef %11) #24
  %13 = tail call i64 @strlen(ptr noundef nonnull dereferenceable(1) %12) #25
  %14 = load i64, ptr getelementptr inbounds (%struct._zend_phpdbg_globals, ptr @phpdbg_globals, i64 0, i32 25), align 8
  %.not16 = icmp eq i64 %13, %14
  br i1 %.not16, label %15, label %17

15:                                               ; preds = %10
  %16 = load ptr, ptr getelementptr inbounds (%struct._zend_phpdbg_globals, ptr @phpdbg_globals, i64 0, i32 24), align 8
  %bcmp = tail call i32 @bcmp(ptr %12, ptr %16, i64 %13)
  %.not17 = icmp eq i32 %bcmp, 0
  br i1 %.not17, label %64, label %17

17:                                               ; preds = %15, %10
  %18 = load i8, ptr getelementptr inbounds (%struct._zend_phpdbg_globals, ptr @phpdbg_globals, i64 0, i32 30), align 8
  %19 = and i8 %18, 1
  %.not18 = icmp eq i8 %19, 0
  br i1 %.not18, label %24, label %20

20:                                               ; preds = %17
  %21 = tail call i32 @phpdbg_ask_user_permission(ptr noundef nonnull @.str.70) #24
  %22 = icmp eq i32 %21, -1
  br i1 %22, label %23, label %24

23:                                               ; preds = %20
  tail call void @free(ptr noundef %12) #24
  br label %75

24:                                               ; preds = %20, %17
  %25 = load ptr, ptr getelementptr inbounds (%struct._zend_phpdbg_globals, ptr @phpdbg_globals, i64 0, i32 24), align 8
  %.not19 = icmp eq ptr %25, null
  br i1 %.not19, label %30, label %26

26:                                               ; preds = %24
  %27 = load i32, ptr getelementptr inbounds (%struct._zend_phpdbg_globals, ptr @phpdbg_globals, i64 0, i32 39, i64 1), align 4
  %28 = tail call i32 (i32, i32, ptr, ...) @phpdbg_print(i32 noundef 2, i32 noundef %27, ptr noundef nonnull @.str.71, ptr noundef nonnull %25) #24
  %29 = load ptr, ptr getelementptr inbounds (%struct._zend_phpdbg_globals, ptr @phpdbg_globals, i64 0, i32 24), align 8
  tail call void @free(ptr noundef %29) #24
  tail call void @llvm.memset.p0.i64(ptr noundef nonnull align 8 dereferenceable(16) getelementptr inbounds (%struct._zend_phpdbg_globals, ptr @phpdbg_globals, i64 0, i32 24), i8 0, i64 16, i1 false)
  br label %30

30:                                               ; preds = %26, %24
  %31 = load ptr, ptr getelementptr inbounds (%struct._zend_phpdbg_globals, ptr @phpdbg_globals, i64 0, i32 26), align 8
  %.not20 = icmp eq ptr %31, null
  br i1 %.not20, label %phpdbg_clean.exit, label %32

32:                                               ; preds = %30
  %33 = load i32, ptr getelementptr inbounds (%struct._zend_phpdbg_globals, ptr @phpdbg_globals, i64 0, i32 39, i64 1), align 4
  %34 = tail call i32 (i32, i32, ptr, ...) @phpdbg_print(i32 noundef 2, i32 noundef %33, ptr noundef nonnull @.str.72) #24
  %35 = load ptr, ptr getelementptr inbounds (%struct._zend_phpdbg_globals, ptr @phpdbg_globals, i64 0, i32 26), align 8
  %.not4.i = icmp eq ptr %35, null
  br i1 %.not4.i, label %38, label %36

36:                                               ; preds = %32
  tail call void @destroy_op_array(ptr noundef nonnull %35) #24
  %37 = load ptr, ptr getelementptr inbounds (%struct._zend_phpdbg_globals, ptr @phpdbg_globals, i64 0, i32 26), align 8
  tail call void @_efree(ptr noundef %37) #24
  store ptr null, ptr getelementptr inbounds (%struct._zend_phpdbg_globals, ptr @phpdbg_globals, i64 0, i32 26), align 8
  br label %38

38:                                               ; preds = %36, %32
  %39 = load ptr, ptr getelementptr inbounds (%struct._zend_phpdbg_globals, ptr @phpdbg_globals, i64 0, i32 7), align 8
  %40 = icmp eq ptr %39, null
  br i1 %40, label %phpdbg_clean.exit, label %41

41:                                               ; preds = %38
  tail call void @free(ptr noundef nonnull %39) #24
  store ptr null, ptr getelementptr inbounds (%struct._zend_phpdbg_globals, ptr @phpdbg_globals, i64 0, i32 7), align 8
  br label %phpdbg_clean.exit

phpdbg_clean.exit:                                ; preds = %41, %38, %30
  store ptr %12, ptr getelementptr inbounds (%struct._zend_phpdbg_globals, ptr @phpdbg_globals, i64 0, i32 24), align 8
  store i64 %13, ptr getelementptr inbounds (%struct._zend_phpdbg_globals, ptr @phpdbg_globals, i64 0, i32 25), align 8
  %42 = tail call i32 @virtual_chdir_file(ptr noundef %12, ptr noundef nonnull @chdir) #24
  %43 = load ptr, ptr getelementptr inbounds (%struct._zend_phpdbg_globals, ptr @phpdbg_globals, i64 0, i32 24), align 8
  %44 = load i64, ptr getelementptr inbounds (%struct._zend_phpdbg_globals, ptr @phpdbg_globals, i64 0, i32 25), align 8
  %45 = tail call noalias ptr @_estrndup(ptr noundef %43, i64 noundef %44) #24
  %46 = load ptr, ptr getelementptr inbounds (%struct._sapi_globals_struct, ptr @sapi_globals, i64 0, i32 1, i32 20), align 8
  store ptr %45, ptr %46, align 8
  tail call void @php_build_argv(ptr noundef null, ptr noundef nonnull getelementptr inbounds (%struct._php_core_globals, ptr @core_globals, i64 0, i32 39, i64 3)) #24
  %47 = load i32, ptr getelementptr inbounds (%struct._zend_phpdbg_globals, ptr @phpdbg_globals, i64 0, i32 39, i64 1), align 4
  %48 = load ptr, ptr getelementptr inbounds (%struct._zend_phpdbg_globals, ptr @phpdbg_globals, i64 0, i32 24), align 8
  %49 = tail call i32 (i32, i32, ptr, ...) @phpdbg_print(i32 noundef 2, i32 noundef %47, ptr noundef nonnull @.str.73, ptr noundef %48) #24
  %50 = load i8, ptr getelementptr inbounds (%struct._zend_phpdbg_globals, ptr @phpdbg_globals, i64 0, i32 30), align 8
  %51 = and i8 %50, 1
  %.not21 = icmp eq i8 %51, 0
  br i1 %.not21, label %62, label %52

52:                                               ; preds = %phpdbg_clean.exit
  %53 = load ptr, ptr getelementptr inbounds (%struct._zend_phpdbg_globals, ptr @phpdbg_globals, i64 0, i32 26), align 8
  %.not4.i22 = icmp eq ptr %53, null
  br i1 %.not4.i22, label %56, label %54

54:                                               ; preds = %52
  tail call void @destroy_op_array(ptr noundef nonnull %53) #24
  %55 = load ptr, ptr getelementptr inbounds (%struct._zend_phpdbg_globals, ptr @phpdbg_globals, i64 0, i32 26), align 8
  tail call void @_efree(ptr noundef %55) #24
  store ptr null, ptr getelementptr inbounds (%struct._zend_phpdbg_globals, ptr @phpdbg_globals, i64 0, i32 26), align 8
  br label %56

56:                                               ; preds = %54, %52
  %57 = load ptr, ptr getelementptr inbounds (%struct._zend_phpdbg_globals, ptr @phpdbg_globals, i64 0, i32 7), align 8
  %58 = icmp eq ptr %57, null
  br i1 %58, label %phpdbg_clean.exit23, label %59

59:                                               ; preds = %56
  tail call void @free(ptr noundef nonnull %57) #24
  store ptr null, ptr getelementptr inbounds (%struct._zend_phpdbg_globals, ptr @phpdbg_globals, i64 0, i32 7), align 8
  br label %phpdbg_clean.exit23

phpdbg_clean.exit23:                              ; preds = %56, %59
  %60 = load i64, ptr getelementptr inbounds (%struct._zend_phpdbg_globals, ptr @phpdbg_globals, i64 0, i32 53), align 8
  %61 = or i64 %60, 262144
  store i64 %61, ptr getelementptr inbounds (%struct._zend_phpdbg_globals, ptr @phpdbg_globals, i64 0, i32 53), align 8
  br label %75

62:                                               ; preds = %phpdbg_clean.exit
  %63 = tail call i32 @phpdbg_compile(), !range !4
  br label %75

64:                                               ; preds = %15
  tail call void @free(ptr noundef %12) #24
  %65 = load i32, ptr getelementptr inbounds (%struct._zend_phpdbg_globals, ptr @phpdbg_globals, i64 0, i32 39, i64 1), align 4
  %66 = tail call i32 (i32, i32, ptr, ...) @phpdbg_print(i32 noundef 2, i32 noundef %65, ptr noundef nonnull @.str.74) #24
  br label %75

67:                                               ; preds = %6
  %68 = load i32, ptr getelementptr inbounds (%struct._zend_phpdbg_globals, ptr @phpdbg_globals, i64 0, i32 39, i64 1), align 4
  %69 = load ptr, ptr %3, align 8
  %70 = tail call i32 (i32, i32, ptr, ...) @phpdbg_print(i32 noundef 1, i32 noundef %68, ptr noundef nonnull @.str.75, ptr noundef %69) #24
  br label %75

71:                                               ; preds = %1
  %72 = load i32, ptr getelementptr inbounds (%struct._zend_phpdbg_globals, ptr @phpdbg_globals, i64 0, i32 39, i64 1), align 4
  %73 = load ptr, ptr %3, align 8
  %74 = tail call i32 (i32, i32, ptr, ...) @phpdbg_print(i32 noundef 1, i32 noundef %72, ptr noundef nonnull @.str.76, ptr noundef %73) #24
  br label %75

75:                                               ; preds = %71, %62, %64, %67, %phpdbg_clean.exit23, %23
  %.0 = phi i32 [ -1, %23 ], [ 0, %phpdbg_clean.exit23 ], [ 0, %67 ], [ 0, %64 ], [ 0, %62 ], [ 0, %71 ]
  ret i32 %.0
}